target datalayout = "e-m:e-p270:32:32-p271:32:32-p272:64:64-i64:64-i128:128-f80:128-n8:16:32:64-S128"
target triple = "x86_64-pc-linux-gnu"

%struct.SDL_AtomicU32 = type { i32 }
%struct.SDL_Hint = type { ptr, i32, ptr }
%struct.SDL_HintWatch = type { ptr, ptr, ptr }

@SDL_hint_props = internal global %struct.SDL_AtomicU32 zeroinitializer, align 4
@.str = private unnamed_addr constant [26 x i8] c"Parameter '%s' is invalid\00", align 1
@.str.1 = private unnamed_addr constant [5 x i8] c"name\00", align 1
@.str.2 = private unnamed_addr constant [43 x i8] c"An environment variable is taking priority\00", align 1
@.str.6 = private unnamed_addr constant [17 x i8] c"SDL_VIDEO_DRIVER\00", align 1
@.str.7 = private unnamed_addr constant [16 x i8] c"SDL_VIDEODRIVER\00", align 1
@.str.8 = private unnamed_addr constant [17 x i8] c"SDL_AUDIO_DRIVER\00", align 1
@.str.9 = private unnamed_addr constant [16 x i8] c"SDL_AUDIODRIVER\00", align 1

; Function Attrs: nounwind uwtable
define internal i32 @GetHintProperties(i1 noundef zeroext %0) #0 {
  %2 = alloca i8, align 1
  %3 = alloca i32, align 4
  %4 = zext i1 %0 to i8
  store i8 %4, ptr %2, align 1
  call void @llvm.lifetime.start.p0(i64 4, ptr %3) #3
  %5 = call i32 @SDL_GetAtomicU32_REAL(ptr noundef @SDL_hint_props)
  store i32 %5, ptr %3, align 4
  %6 = load i32, ptr %3, align 4
  %7 = icmp ne i32 %6, 0
  br i1 %7, label %19, label %8

8:                                                ; preds = %1
  %9 = load i8, ptr %2, align 1, !range !6, !noundef !7
  %10 = trunc i8 %9 to i1
  br i1 %10, label %11, label %19

11:                                               ; preds = %8
  %12 = call i32 @SDL_CreateProperties_REAL()
  store i32 %12, ptr %3, align 4
  %13 = load i32, ptr %3, align 4
  %14 = call zeroext i1 @SDL_CompareAndSwapAtomicU32_REAL(ptr noundef @SDL_hint_props, i32 noundef 0, i32 noundef %13)
  br i1 %14, label %18, label %15

15:                                               ; preds = %11
  %16 = load i32, ptr %3, align 4
  call void @SDL_DestroyProperties_REAL(i32 noundef %16)
  %17 = call i32 @SDL_GetAtomicU32_REAL(ptr noundef @SDL_hint_props)
  store i32 %17, ptr %3, align 4
  br label %18

18:                                               ; preds = %15, %11
  br label %19

19:                                               ; preds = %18, %8, %1
  %20 = load i32, ptr %3, align 4
  call void @llvm.lifetime.end.p0(i64 4, ptr %3) #3
  ret i32 %20
}

; Function Attrs: nounwind uwtable
define internal ptr @GetHintEnvironmentVariable(ptr noundef %0) #0 {
  %2 = alloca ptr, align 8
  %3 = alloca ptr, align 8
  store ptr %0, ptr %2, align 8
  call void @llvm.lifetime.start.p0(i64 8, ptr %3) #3
  %4 = load ptr, ptr %2, align 8
  %5 = call ptr @SDL_getenv_REAL(ptr noundef %4)
  store ptr %5, ptr %3, align 8
  %6 = load ptr, ptr %3, align 8
  %7 = icmp ne ptr %6, null
  br i1 %7, label %30, label %8

8:                                                ; preds = %1
  %9 = load ptr, ptr %2, align 8
  %10 = icmp ne ptr %9, null
  br i1 %10, label %11, label %30

11:                                               ; preds = %8
  %12 = load ptr, ptr %2, align 8
  %13 = load i8, ptr %12, align 1
  %14 = sext i8 %13 to i32
  %15 = icmp ne i32 %14, 0
  br i1 %15, label %16, label %30

16:                                               ; preds = %11
  %17 = load ptr, ptr %2, align 8
  %18 = call i32 @SDL_strcmp_REAL(ptr noundef %17, ptr noundef @.str.6)
  %19 = icmp eq i32 %18, 0
  br i1 %19, label %20, label %22

20:                                               ; preds = %16
  %21 = call ptr @SDL_getenv_REAL(ptr noundef @.str.7)
  store ptr %21, ptr %3, align 8
  br label %29

22:                                               ; preds = %16
  %23 = load ptr, ptr %2, align 8
  %24 = call i32 @SDL_strcmp_REAL(ptr noundef %23, ptr noundef @.str.8)
  %25 = icmp eq i32 %24, 0
  br i1 %25, label %26, label %28

26:                                               ; preds = %22
  %27 = call ptr @SDL_getenv_REAL(ptr noundef @.str.9)
  store ptr %27, ptr %3, align 8
  br label %28

28:                                               ; preds = %26, %22
  br label %29

29:                                               ; preds = %28, %20
  br label %30

30:                                               ; preds = %29, %11, %8, %1
  %31 = load ptr, ptr %3, align 8
  call void @llvm.lifetime.end.p0(i64 8, ptr %3) #3
  ret ptr %31
}

; Function Attrs: nounwind uwtable
define hidden zeroext i1 @SDL_SetHintWithPriority_REAL(ptr noundef %0, ptr noundef %1, i32 noundef %2) #0 {
  %4 = alloca i1, align 1
  %5 = alloca ptr, align 8
  %6 = alloca ptr, align 8
  %7 = alloca i32, align 4
  %8 = alloca ptr, align 8
  %9 = alloca i32, align 4
  %10 = alloca i32, align 4
  %11 = alloca i8, align 1
  %12 = alloca ptr, align 8
  %13 = alloca ptr, align 8
  %14 = alloca ptr, align 8
  %15 = alloca ptr, align 8
  store ptr %0, ptr %5, align 8
  store ptr %1, ptr %6, align 8
  store i32 %2, ptr %7, align 4
  %16 = load ptr, ptr %5, align 8
  %17 = icmp ne ptr %16, null
  br i1 %17, label %18, label %22

18:                                               ; preds = %3
  %19 = load ptr, ptr %5, align 8
  %20 = load i8, ptr %19, align 1
  %21 = icmp ne i8 %20, 0
  br i1 %21, label %24, label %22

22:                                               ; preds = %18, %3
  %23 = call zeroext i1 (ptr, ...) @SDL_SetError_REAL(ptr noundef @.str, ptr noundef @.str.1)
  store i1 %23, ptr %4, align 1
  br label %147

24:                                               ; preds = %18
  call void @llvm.lifetime.start.p0(i64 8, ptr %8) #3
  %25 = load ptr, ptr %5, align 8
  %26 = call ptr @GetHintEnvironmentVariable(ptr noundef %25)
  store ptr %26, ptr %8, align 8
  %27 = load ptr, ptr %8, align 8
  %28 = icmp ne ptr %27, null
  br i1 %28, label %29, label %34

29:                                               ; preds = %24
  %30 = load i32, ptr %7, align 4
  %31 = icmp ult i32 %30, 2
  br i1 %31, label %32, label %34

32:                                               ; preds = %29
  %33 = call zeroext i1 (ptr, ...) @SDL_SetError_REAL(ptr noundef @.str.2)
  store i1 %33, ptr %4, align 1
  store i32 1, ptr %9, align 4
  br label %146

34:                                               ; preds = %29, %24
  call void @llvm.lifetime.start.p0(i64 4, ptr %10) #3
  %35 = call i32 @GetHintProperties(i1 noundef zeroext true)
  store i32 %35, ptr %10, align 4
  %36 = load i32, ptr %10, align 4
  %37 = icmp ne i32 %36, 0
  br i1 %37, label %39, label %38

38:                                               ; preds = %34
  store i1 false, ptr %4, align 1
  store i32 1, ptr %9, align 4
  br label %145

39:                                               ; preds = %34
  call void @llvm.lifetime.start.p0(i64 1, ptr %11) #3
  store i8 0, ptr %11, align 1
  %40 = load i32, ptr %10, align 4
  %41 = call zeroext i1 @SDL_LockProperties_REAL(i32 noundef %40)
  call void @llvm.lifetime.start.p0(i64 8, ptr %12) #3
  %42 = load i32, ptr %10, align 4
  %43 = load ptr, ptr %5, align 8
  %44 = call ptr @SDL_GetPointerProperty_REAL(i32 noundef %42, ptr noundef %43, ptr noundef null)
  store ptr %44, ptr %12, align 8
  %45 = load ptr, ptr %12, align 8
  %46 = icmp ne ptr %45, null
  br i1 %46, label %47, label %115

47:                                               ; preds = %39
  %48 = load i32, ptr %7, align 4
  %49 = load ptr, ptr %12, align 8
  %50 = getelementptr inbounds nuw %struct.SDL_Hint, ptr %49, i32 0, i32 1
  %51 = load i32, ptr %50, align 8
  %52 = icmp uge i32 %48, %51
  br i1 %52, label %53, label %114

53:                                               ; preds = %47
  %54 = load ptr, ptr %12, align 8
  %55 = getelementptr inbounds nuw %struct.SDL_Hint, ptr %54, i32 0, i32 0
  %56 = load ptr, ptr %55, align 8
  %57 = load ptr, ptr %6, align 8
  %58 = icmp ne ptr %56, %57
  br i1 %58, label %59, label %110

59:                                               ; preds = %53
  %60 = load ptr, ptr %6, align 8
  %61 = icmp ne ptr %60, null
  br i1 %61, label %62, label %74

62:                                               ; preds = %59
  %63 = load ptr, ptr %12, align 8
  %64 = getelementptr inbounds nuw %struct.SDL_Hint, ptr %63, i32 0, i32 0
  %65 = load ptr, ptr %64, align 8
  %66 = icmp ne ptr %65, null
  br i1 %66, label %67, label %74

67:                                               ; preds = %62
  %68 = load ptr, ptr %12, align 8
  %69 = getelementptr inbounds nuw %struct.SDL_Hint, ptr %68, i32 0, i32 0
  %70 = load ptr, ptr %69, align 8
  %71 = load ptr, ptr %6, align 8
  %72 = call i32 @SDL_strcmp_REAL(ptr noundef %70, ptr noundef %71)
  %73 = icmp ne i32 %72, 0
  br i1 %73, label %74, label %110

74:                                               ; preds = %67, %62, %59
  call void @llvm.lifetime.start.p0(i64 8, ptr %13) #3
  %75 = load ptr, ptr %12, align 8
  %76 = getelementptr inbounds nuw %struct.SDL_Hint, ptr %75, i32 0, i32 0
  %77 = load ptr, ptr %76, align 8
  store ptr %77, ptr %13, align 8
  %78 = load ptr, ptr %6, align 8
  %79 = icmp ne ptr %78, null
  br i1 %79, label %80, label %83

80:                                               ; preds = %74
  %81 = load ptr, ptr %6, align 8
  %82 = call noalias ptr @SDL_strdup_REAL(ptr noundef %81)
  br label %84

83:                                               ; preds = %74
  br label %84

84:                                               ; preds = %83, %80
  %85 = phi ptr [ %82, %80 ], [ null, %83 ]
  %86 = load ptr, ptr %12, align 8
  %87 = getelementptr inbounds nuw %struct.SDL_Hint, ptr %86, i32 0, i32 0
  store ptr %85, ptr %87, align 8
  call void @llvm.lifetime.start.p0(i64 8, ptr %14) #3
  %88 = load ptr, ptr %12, align 8
  %89 = getelementptr inbounds nuw %struct.SDL_Hint, ptr %88, i32 0, i32 2
  %90 = load ptr, ptr %89, align 8
  store ptr %90, ptr %14, align 8
  br label %91

91:                                               ; preds = %94, %84
  %92 = load ptr, ptr %14, align 8
  %93 = icmp ne ptr %92, null
  br i1 %93, label %94, label %108

94:                                               ; preds = %91
  call void @llvm.lifetime.start.p0(i64 8, ptr %15) #3
  %95 = load ptr, ptr %14, align 8
  %96 = getelementptr inbounds nuw %struct.SDL_HintWatch, ptr %95, i32 0, i32 2
  %97 = load ptr, ptr %96, align 8
  store ptr %97, ptr %15, align 8
  %98 = load ptr, ptr %14, align 8
  %99 = getelementptr inbounds nuw %struct.SDL_HintWatch, ptr %98, i32 0, i32 0
  %100 = load ptr, ptr %99, align 8
  %101 = load ptr, ptr %14, align 8
  %102 = getelementptr inbounds nuw %struct.SDL_HintWatch, ptr %101, i32 0, i32 1
  %103 = load ptr, ptr %102, align 8
  %104 = load ptr, ptr %5, align 8
  %105 = load ptr, ptr %13, align 8
  %106 = load ptr, ptr %6, align 8
  call void %100(ptr noundef %103, ptr noundef %104, ptr noundef %105, ptr noundef %106)
  %107 = load ptr, ptr %15, align 8
  store ptr %107, ptr %14, align 8
  call void @llvm.lifetime.end.p0(i64 8, ptr %15) #3
  br label %91, !llvm.loop !5

108:                                              ; preds = %91
  %109 = load ptr, ptr %13, align 8
  call void @SDL_free_REAL(ptr noundef %109)
  call void @llvm.lifetime.end.p0(i64 8, ptr %14) #3
  call void @llvm.lifetime.end.p0(i64 8, ptr %13) #3
  br label %110

110:                                              ; preds = %108, %67, %53
  %111 = load i32, ptr %7, align 4
  %112 = load ptr, ptr %12, align 8
  %113 = getelementptr inbounds nuw %struct.SDL_Hint, ptr %112, i32 0, i32 1
  store i32 %111, ptr %113, align 8
  store i8 1, ptr %11, align 1
  br label %114

114:                                              ; preds = %110, %47
  br label %141

115:                                              ; preds = %39
  %116 = call noalias ptr @SDL_malloc_REAL(i64 noundef 24)
  store ptr %116, ptr %12, align 8
  %117 = load ptr, ptr %12, align 8
  %118 = icmp ne ptr %117, null
  br i1 %118, label %119, label %140

119:                                              ; preds = %115
  %120 = load ptr, ptr %6, align 8
  %121 = icmp ne ptr %120, null
  br i1 %121, label %122, label %125

122:                                              ; preds = %119
  %123 = load ptr, ptr %6, align 8
  %124 = call noalias ptr @SDL_strdup_REAL(ptr noundef %123)
  br label %126

125:                                              ; preds = %119
  br label %126

126:                                              ; preds = %125, %122
  %127 = phi ptr [ %124, %122 ], [ null, %125 ]
  %128 = load ptr, ptr %12, align 8
  %129 = getelementptr inbounds nuw %struct.SDL_Hint, ptr %128, i32 0, i32 0
  store ptr %127, ptr %129, align 8
  %130 = load i32, ptr %7, align 4
  %131 = load ptr, ptr %12, align 8
  %132 = getelementptr inbounds nuw %struct.SDL_Hint, ptr %131, i32 0, i32 1
  store i32 %130, ptr %132, align 8
  %133 = load ptr, ptr %12, align 8
  %134 = getelementptr inbounds nuw %struct.SDL_Hint, ptr %133, i32 0, i32 2
  store ptr null, ptr %134, align 8
  %135 = load i32, ptr %10, align 4
  %136 = load ptr, ptr %5, align 8
  %137 = load ptr, ptr %12, align 8
  %138 = call zeroext i1 @SDL_SetPointerPropertyWithCleanup_REAL(i32 noundef %135, ptr noundef %136, ptr noundef %137, ptr noundef @CleanupHintProperty, ptr noundef null)
  %139 = zext i1 %138 to i8
  store i8 %139, ptr %11, align 1
  br label %140

140:                                              ; preds = %126, %115
  br label %141

141:                                              ; preds = %140, %114
  %142 = load i32, ptr %10, align 4
  call void @SDL_UnlockProperties_REAL(i32 noundef %142)
  %143 = load i8, ptr %11, align 1, !range !6, !noundef !7
  %144 = trunc i8 %143 to i1
  store i1 %144, ptr %4, align 1
  store i32 1, ptr %9, align 4
  call void @llvm.lifetime.end.p0(i64 8, ptr %12) #3
  call void @llvm.lifetime.end.p0(i64 1, ptr %11) #3
  br label %145

145:                                              ; preds = %141, %38
  call void @llvm.lifetime.end.p0(i64 4, ptr %10) #3
  br label %146

146:                                              ; preds = %145, %32
  call void @llvm.lifetime.end.p0(i64 8, ptr %8) #3
  br label %147

147:                                              ; preds = %146, %22
  %148 = load i1, ptr %4, align 1
  ret i1 %148
}