; Function Attrs: nounwind uwtable
define hidden zeroext i1 @SDL_SetHintWithPriority_REAL(ptr noundef %0, ptr noundef %1, i32 noundef %2) local_unnamed_addr #1 {
  %.not = icmp eq ptr %0, null
  br i1 %.not, label %6, label %4

4:                                                ; preds = %3
  %5 = load i8, ptr %0, align 1
  %.not56 = icmp eq i8 %5, 0
  br i1 %.not56, label %6, label %8

6:                                                ; preds = %4, %3
  %7 = tail call zeroext i1 (ptr, ...) @SDL_SetError_REAL(ptr noundef nonnull @.str, ptr noundef nonnull @.str.1) #3
  br label %68

8:                                                ; preds = %4
  %9 = tail call ptr @SDL_getenv_REAL(ptr noundef nonnull %0) #3
  %10 = icmp eq ptr %9, null
  br i1 %10, label %11, label %GetHintEnvironmentVariable.exit

11:                                               ; preds = %8
  %12 = load i8, ptr %0, align 1
  %.not.i = icmp eq i8 %12, 0
  br i1 %.not.i, label %GetHintEnvironmentVariable.exit.thread, label %13

13:                                               ; preds = %11
  %14 = tail call i32 @SDL_strcmp_REAL(ptr noundef nonnull %0, ptr noundef nonnull @.str.6) #3
  %15 = icmp eq i32 %14, 0
  br i1 %15, label %.sink.split.i, label %16

16:                                               ; preds = %13
  %17 = tail call i32 @SDL_strcmp_REAL(ptr noundef nonnull %0, ptr noundef nonnull @.str.8) #3
  %18 = icmp eq i32 %17, 0
  br i1 %18, label %.sink.split.i, label %GetHintEnvironmentVariable.exit.thread

.sink.split.i:                                    ; preds = %16, %13
  %.str.7.sink.i = phi ptr [ @.str.7, %13 ], [ @.str.9, %16 ]
  %19 = tail call ptr @SDL_getenv_REAL(ptr noundef nonnull %.str.7.sink.i) #3
  %20 = icmp ne ptr %19, null
  br label %GetHintEnvironmentVariable.exit

GetHintEnvironmentVariable.exit:                  ; preds = %8, %.sink.split.i
  %.0.i = phi i1 [ true, %8 ], [ %20, %.sink.split.i ]
  %21 = icmp ult i32 %2, 2
  %or.cond = and i1 %21, %.0.i
  br i1 %or.cond, label %22, label %GetHintEnvironmentVariable.exit.thread

22:                                               ; preds = %GetHintEnvironmentVariable.exit
  %23 = tail call zeroext i1 (ptr, ...) @SDL_SetError_REAL(ptr noundef nonnull @.str.2) #3
  br label %68

GetHintEnvironmentVariable.exit.thread:           ; preds = %11, %16, %GetHintEnvironmentVariable.exit
  %24 = tail call i32 @SDL_GetAtomicU32_REAL(ptr noundef nonnull @SDL_hint_props) #3
  %25 = icmp eq i32 %24, 0
  br i1 %25, label %26, label %GetHintProperties.exit.thread

26:                                               ; preds = %GetHintEnvironmentVariable.exit.thread
  %27 = tail call i32 @SDL_CreateProperties_REAL() #3
  %28 = tail call zeroext i1 @SDL_CompareAndSwapAtomicU32_REAL(ptr noundef nonnull @SDL_hint_props, i32 noundef 0, i32 noundef %27) #3
  br i1 %28, label %GetHintProperties.exit, label %29

29:                                               ; preds = %26
  tail call void @SDL_DestroyProperties_REAL(i32 noundef %27) #3
  %30 = tail call i32 @SDL_GetAtomicU32_REAL(ptr noundef nonnull @SDL_hint_props) #3
  br label %GetHintProperties.exit

GetHintProperties.exit:                           ; preds = %26, %29
  %.0.i69 = phi i32 [ %27, %26 ], [ %30, %29 ]
  %.not57 = icmp eq i32 %.0.i69, 0
  br i1 %.not57, label %68, label %GetHintProperties.exit.thread

GetHintProperties.exit.thread:                    ; preds = %GetHintEnvironmentVariable.exit.thread, %GetHintProperties.exit
  %.0.i6974 = phi i32 [ %.0.i69, %GetHintProperties.exit ], [ %24, %GetHintEnvironmentVariable.exit.thread ]
  %31 = tail call zeroext i1 @SDL_LockProperties_REAL(i32 noundef %.0.i6974) #3
  %32 = tail call ptr @SDL_GetPointerProperty_REAL(i32 noundef %.0.i6974, ptr noundef nonnull %0, ptr noundef null) #3
  %.not58 = icmp eq ptr %32, null
  br i1 %.not58, label %57, label %33

33:                                               ; preds = %GetHintProperties.exit.thread
  %34 = getelementptr inbounds nuw i8, ptr %32, i64 8
  %35 = load i32, ptr %34, align 8
  %.not61 = icmp ult i32 %2, %35
  br i1 %.not61, label %67, label %36

36:                                               ; preds = %33
  %37 = load ptr, ptr %32, align 8
  %.not62 = icmp eq ptr %37, %1
  br i1 %.not62, label %56, label %38

38:                                               ; preds = %36
  %.not63 = icmp eq ptr %1, null
  %.not64 = icmp eq ptr %37, null
  %or.cond67 = or i1 %.not63, %.not64
  br i1 %or.cond67, label %42, label %39

39:                                               ; preds = %38
  %40 = tail call i32 @SDL_strcmp_REAL(ptr noundef nonnull %37, ptr noundef nonnull %1) #3
  %.not65 = icmp eq i32 %40, 0
  br i1 %.not65, label %56, label %.thread

.thread:                                          ; preds = %39
  %41 = load ptr, ptr %32, align 8
  br label %43

42:                                               ; preds = %38
  br i1 %.not63, label %46, label %43

43:                                               ; preds = %.thread, %42
  %44 = phi ptr [ %41, %.thread ], [ %37, %42 ]
  %45 = tail call noalias ptr @SDL_strdup_REAL(ptr noundef nonnull %1) #3
  br label %46

46:                                               ; preds = %42, %43
  %47 = phi ptr [ %44, %43 ], [ %37, %42 ]
  %48 = phi ptr [ %45, %43 ], [ null, %42 ]
  store ptr %48, ptr %32, align 8
  %49 = getelementptr inbounds nuw i8, ptr %32, i64 16
  %50 = load ptr, ptr %49, align 8
  %.not6675 = icmp eq ptr %50, null
  br i1 %.not6675, label %._crit_edge, label %.lr.ph

.lr.ph:                                           ; preds = %46, %.lr.ph
  %.04776 = phi ptr [ %52, %.lr.ph ], [ %50, %46 ]
  %51 = getelementptr inbounds nuw i8, ptr %.04776, i64 16
  %52 = load ptr, ptr %51, align 8
  %53 = load ptr, ptr %.04776, align 8
  %54 = getelementptr inbounds nuw i8, ptr %.04776, i64 8
  %55 = load ptr, ptr %54, align 8
  tail call void %53(ptr noundef %55, ptr noundef nonnull %0, ptr noundef %47, ptr noundef %1) #3
  %.not66 = icmp eq ptr %52, null
  br i1 %.not66, label %._crit_edge, label %.lr.ph, !llvm.loop !5

._crit_edge:                                      ; preds = %.lr.ph, %46
  tail call void @SDL_free_REAL(ptr noundef %47) #3
  br label %56

56:                                               ; preds = %._crit_edge, %39, %36
  store i32 %2, ptr %34, align 8
  br label %67

57:                                               ; preds = %GetHintProperties.exit.thread
  %58 = tail call noalias ptr @SDL_malloc_REAL(i64 noundef 24) #3
  %.not59 = icmp eq ptr %58, null
  br i1 %.not59, label %67, label %59

59:                                               ; preds = %57
  %.not60 = icmp eq ptr %1, null
  br i1 %.not60, label %62, label %60

60:                                               ; preds = %59
  %61 = tail call noalias ptr @SDL_strdup_REAL(ptr noundef nonnull %1) #3
  br label %62

62:                                               ; preds = %59, %60
  %63 = phi ptr [ %61, %60 ], [ null, %59 ]
  store ptr %63, ptr %58, align 8
  %64 = getelementptr inbounds nuw i8, ptr %58, i64 8
  store i32 %2, ptr %64, align 8
  %65 = getelementptr inbounds nuw i8, ptr %58, i64 16
  store ptr null, ptr %65, align 8
  %66 = tail call zeroext i1 @SDL_SetPointerPropertyWithCleanup_REAL(i32 noundef %.0.i6974, ptr noundef nonnull %0, ptr noundef nonnull %58, ptr noundef nonnull @CleanupHintProperty, ptr noundef null) #3
  br label %67

67:                                               ; preds = %57, %62, %33, %56
  %.048 = phi i1 [ true, %56 ], [ false, %33 ], [ %66, %62 ], [ false, %57 ]
  tail call void @SDL_UnlockProperties_REAL(i32 noundef %.0.i6974) #3
  br label %68

68:                                               ; preds = %22, %GetHintProperties.exit, %67, %6
  %.0 = phi i1 [ %7, %6 ], [ %23, %22 ], [ %.048, %67 ], [ false, %GetHintProperties.exit ]
  ret i1 %.0
}